; Function Attrs: mustprogress uwtable
define hidden void @_ZN6tactic10checkpointER11ast_manager(ptr noundef nonnull align 8 dereferenceable(976) %m) local_unnamed_addr #3 align 2 personality ptr @__gxx_personality_v0 {
entry:
  %ref.tmp = alloca %"class.std::__cxx11::basic_string", align 8
  %ref.tmp4 = alloca %"class.std::allocator", align 1
  %call2.i = tail call noundef zeroext i1 @_ZN8reslimit3incEv(ptr noundef nonnull align 8 dereferenceable(40) %m)
  br i1 %call2.i, label %if.end, label %if.then

if.then:                                          ; preds = %entry
  %exception = tail call ptr @__cxa_allocate_exception(i64 40) #14
  %call3 = invoke noundef ptr @_ZNK8reslimit14get_cancel_msgEv(ptr noundef nonnull align 8 dereferenceable(40) %m)
          to label %invoke.cont2 unwind label %ehcleanup9.thread

invoke.cont2:                                     ; preds = %if.then
  call void @_ZNSaIcEC1Ev(ptr noundef nonnull align 1 dereferenceable(1) %ref.tmp4) #14
  invoke void @_ZNSt7__cxx1112basic_stringIcSt11char_traitsIcESaIcEEC2IS3_EEPKcRKS3_(ptr noundef nonnull align 8 dereferenceable(32) %ref.tmp, ptr noundef %call3, ptr noundef nonnull align 1 dereferenceable(1) %ref.tmp4)
          to label %invoke.cont6 unwind label %ehcleanup9.thread8

invoke.cont6:                                     ; preds = %invoke.cont2
  store ptr getelementptr inbounds ({ [6 x ptr] }, ptr @_ZTV16tactic_exception, i64 0, i32 0, i64 2), ptr %exception, align 8
  %m_msg.i = getelementptr inbounds i8, ptr %exception, i64 8
  call void @_ZNSt7__cxx1112basic_stringIcSt11char_traitsIcESaIcEEC1EOS4_(ptr noundef nonnull align 8 dereferenceable(32) %m_msg.i, ptr noundef nonnull align 8 dereferenceable(32) %ref.tmp) #14
  invoke void @__cxa_throw(ptr nonnull %exception, ptr nonnull @_ZTI16tactic_exception, ptr nonnull @_ZN16tactic_exceptionD2Ev) #16
          to label %unreachable unwind label %ehcleanup9

ehcleanup9.thread:                                ; preds = %if.then
  %0 = landingpad { ptr, i32 }
          cleanup
  br label %cleanup.action

ehcleanup9.thread8:                               ; preds = %invoke.cont2
  %1 = landingpad { ptr, i32 }
          cleanup
  call void @_ZNSaIcED1Ev(ptr noundef nonnull align 1 dereferenceable(1) %ref.tmp4) #14
  br label %cleanup.action

ehcleanup9:                                       ; preds = %invoke.cont6
  %2 = landingpad { ptr, i32 }
          cleanup
  call void @_ZNSt7__cxx1112basic_stringIcSt11char_traitsIcESaIcEED1Ev(ptr noundef nonnull align 8 dereferenceable(32) %ref.tmp) #14
  call void @_ZNSaIcED1Ev(ptr noundef nonnull align 1 dereferenceable(1) %ref.tmp4) #14
  br label %eh.resume

cleanup.action:                                   ; preds = %ehcleanup9.thread8, %ehcleanup9.thread
  %.pn.pn7 = phi { ptr, i32 } [ %0, %ehcleanup9.thread ], [ %1, %ehcleanup9.thread8 ]
  call void @__cxa_free_exception(ptr %exception) #14
  br label %eh.resume

if.end:                                           ; preds = %entry
  ret void

eh.resume:                                        ; preds = %ehcleanup9, %cleanup.action
  %.pn.pn6 = phi { ptr, i32 } [ %2, %ehcleanup9 ], [ %.pn.pn7, %cleanup.action ]
  resume { ptr, i32 } %.pn.pn6

unreachable:                                      ; preds = %invoke.cont6
  unreachable
}